target datalayout = "e-m:e-p270:32:32-p271:32:32-p272:64:64-i64:64-i128:128-f80:128-n8:16:32:64-S128"
target triple = "x86_64-pc-linux-gnu"

%struct.TupleTableSlotOps = type { i64, ptr, ptr, ptr, ptr, ptr, ptr, ptr, ptr, ptr, ptr, ptr, ptr }
%struct.TupleHashEntryData = type { ptr, ptr, i32, i32 }
%struct.TupleHashTableData = type { ptr, i32, ptr, ptr, ptr, ptr, ptr, ptr, ptr, ptr, ptr, ptr, ptr }
%struct.TupleTableSlot = type { i32, i16, i16, ptr, ptr, ptr, ptr, ptr, %struct.ItemPointerData, i32 }
%struct.ItemPointerData = type { %struct.BlockIdData, i16 }
%struct.BlockIdData = type { i16, i16 }

@CurrentMemoryContext = external global ptr, align 8

; Function Attrs: inlinehint nounwind uwtable
define internal ptr @ExecCopySlotMinimalTuple(ptr noundef %0) #3 {
  %2 = alloca ptr, align 8
  store ptr %0, ptr %2, align 8
  %3 = load ptr, ptr %2, align 8
  %4 = getelementptr inbounds nuw %struct.TupleTableSlot, ptr %3, i32 0, i32 3
  %5 = load ptr, ptr %4, align 8
  %6 = getelementptr inbounds nuw %struct.TupleTableSlotOps, ptr %5, i32 0, i32 12
  %7 = load ptr, ptr %6, align 8
  %8 = load ptr, ptr %2, align 8
  %9 = call ptr %7(ptr noundef %8)
  ret ptr %9
}

; Function Attrs: nounwind uwtable
define dso_local ptr @tuplehash_insert_hash(ptr noundef %0, ptr noundef %1, i32 noundef %2, ptr noundef %3) #0 {
  %5 = alloca ptr, align 8
  %6 = alloca ptr, align 8
  %7 = alloca i32, align 4
  %8 = alloca ptr, align 8
  store ptr %0, ptr %5, align 8
  store ptr %1, ptr %6, align 8
  store i32 %2, ptr %7, align 4
  store ptr %3, ptr %8, align 8
  %9 = load ptr, ptr %5, align 8
  %10 = load ptr, ptr %6, align 8
  %11 = load i32, ptr %7, align 4
  %12 = load ptr, ptr %8, align 8
  %13 = call ptr @tuplehash_insert_hash_internal(ptr noundef %9, ptr noundef %10, i32 noundef %11, ptr noundef %12)
  ret ptr %13
}

; Function Attrs: inlinehint nounwind uwtable
define internal ptr @LookupTupleHashEntry_internal(ptr noundef %0, ptr noundef %1, ptr noundef %2, i32 noundef %3) #3 {
  %5 = alloca ptr, align 8
  %6 = alloca ptr, align 8
  %7 = alloca ptr, align 8
  %8 = alloca i32, align 4
  %9 = alloca ptr, align 8
  %10 = alloca i8, align 1
  %11 = alloca ptr, align 8
  store ptr %0, ptr %5, align 8
  store ptr %1, ptr %6, align 8
  store ptr %2, ptr %7, align 8
  store i32 %3, ptr %8, align 4
  call void @llvm.lifetime.start.p0(i64 8, ptr %9) #9
  call void @llvm.lifetime.start.p0(i64 1, ptr %10) #9
  call void @llvm.lifetime.start.p0(i64 8, ptr %11) #9
  store ptr null, ptr %11, align 8
  %12 = load ptr, ptr %7, align 8
  %13 = icmp ne ptr %12, null
  br i1 %13, label %14, label %38

14:                                               ; preds = %4
  %15 = load ptr, ptr %5, align 8
  %16 = getelementptr inbounds nuw %struct.TupleHashTableData, ptr %15, i32 0, i32 0
  %17 = load ptr, ptr %16, align 8
  %18 = load ptr, ptr %11, align 8
  %19 = load i32, ptr %8, align 4
  %20 = call ptr @tuplehash_insert_hash(ptr noundef %17, ptr noundef %18, i32 noundef %19, ptr noundef %10)
  store ptr %20, ptr %9, align 8
  %21 = load i8, ptr %10, align 1, !range !9, !noundef !10
  %22 = trunc i8 %21 to i1
  br i1 %22, label %23, label %25

23:                                               ; preds = %14
  %24 = load ptr, ptr %7, align 8
  store i8 0, ptr %24, align 1
  br label %37

25:                                               ; preds = %14
  %26 = load ptr, ptr %7, align 8
  store i8 1, ptr %26, align 1
  %27 = load ptr, ptr %9, align 8
  %28 = getelementptr inbounds nuw %struct.TupleHashEntryData, ptr %27, i32 0, i32 1
  store ptr null, ptr %28, align 8
  %29 = load ptr, ptr %5, align 8
  %30 = getelementptr inbounds nuw %struct.TupleHashTableData, ptr %29, i32 0, i32 6
  %31 = load ptr, ptr %30, align 8
  %32 = call ptr @MemoryContextSwitchTo(ptr noundef %31)
  %33 = load ptr, ptr %6, align 8
  %34 = call ptr @ExecCopySlotMinimalTuple(ptr noundef %33)
  %35 = load ptr, ptr %9, align 8
  %36 = getelementptr inbounds nuw %struct.TupleHashEntryData, ptr %35, i32 0, i32 0
  store ptr %34, ptr %36, align 8
  br label %37

37:                                               ; preds = %25, %23
  br label %45

38:                                               ; preds = %4
  %39 = load ptr, ptr %5, align 8
  %40 = getelementptr inbounds nuw %struct.TupleHashTableData, ptr %39, i32 0, i32 0
  %41 = load ptr, ptr %40, align 8
  %42 = load ptr, ptr %11, align 8
  %43 = load i32, ptr %8, align 4
  %44 = call ptr @tuplehash_lookup_hash(ptr noundef %41, ptr noundef %42, i32 noundef %43)
  store ptr %44, ptr %9, align 8
  br label %45

45:                                               ; preds = %38, %37
  %46 = load ptr, ptr %9, align 8
  call void @llvm.lifetime.end.p0(i64 8, ptr %11) #9
  call void @llvm.lifetime.end.p0(i64 1, ptr %10) #9
  call void @llvm.lifetime.end.p0(i64 8, ptr %9) #9
  ret ptr %46
}

; Function Attrs: inlinehint nounwind uwtable
define internal ptr @MemoryContextSwitchTo(ptr noundef %0) #3 {
  %2 = alloca ptr, align 8
  %3 = alloca ptr, align 8
  store ptr %0, ptr %2, align 8
  call void @llvm.lifetime.start.p0(i64 8, ptr %3) #9
  %4 = load ptr, ptr @CurrentMemoryContext, align 8
  store ptr %4, ptr %3, align 8
  %5 = load ptr, ptr %2, align 8
  store ptr %5, ptr @CurrentMemoryContext, align 8
  %6 = load ptr, ptr %3, align 8
  call void @llvm.lifetime.end.p0(i64 8, ptr %3) #9
  ret ptr %6
}

; Function Attrs: nounwind uwtable
define dso_local ptr @LookupTupleHashEntryHash(ptr noundef %0, ptr noundef %1, ptr noundef %2, i32 noundef %3) #0 {
  %5 = alloca ptr, align 8
  %6 = alloca ptr, align 8
  %7 = alloca ptr, align 8
  %8 = alloca i32, align 4
  %9 = alloca ptr, align 8
  %10 = alloca ptr, align 8
  store ptr %0, ptr %5, align 8
  store ptr %1, ptr %6, align 8
  store ptr %2, ptr %7, align 8
  store i32 %3, ptr %8, align 4
  call void @llvm.lifetime.start.p0(i64 8, ptr %9) #9
  call void @llvm.lifetime.start.p0(i64 8, ptr %10) #9
  %11 = load ptr, ptr %5, align 8
  %12 = getelementptr inbounds nuw %struct.TupleHashTableData, ptr %11, i32 0, i32 7
  %13 = load ptr, ptr %12, align 8
  %14 = call ptr @MemoryContextSwitchTo(ptr noundef %13)
  store ptr %14, ptr %10, align 8
  %15 = load ptr, ptr %6, align 8
  %16 = load ptr, ptr %5, align 8
  %17 = getelementptr inbounds nuw %struct.TupleHashTableData, ptr %16, i32 0, i32 9
  store ptr %15, ptr %17, align 8
  %18 = load ptr, ptr %5, align 8
  %19 = getelementptr inbounds nuw %struct.TupleHashTableData, ptr %18, i32 0, i32 3
  %20 = load ptr, ptr %19, align 8
  %21 = load ptr, ptr %5, align 8
  %22 = getelementptr inbounds nuw %struct.TupleHashTableData, ptr %21, i32 0, i32 10
  store ptr %20, ptr %22, align 8
  %23 = load ptr, ptr %5, align 8
  %24 = getelementptr inbounds nuw %struct.TupleHashTableData, ptr %23, i32 0, i32 4
  %25 = load ptr, ptr %24, align 8
  %26 = load ptr, ptr %5, align 8
  %27 = getelementptr inbounds nuw %struct.TupleHashTableData, ptr %26, i32 0, i32 11
  store ptr %25, ptr %27, align 8
  %28 = load ptr, ptr %5, align 8
  %29 = load ptr, ptr %6, align 8
  %30 = load ptr, ptr %7, align 8
  %31 = load i32, ptr %8, align 4
  %32 = call ptr @LookupTupleHashEntry_internal(ptr noundef %28, ptr noundef %29, ptr noundef %30, i32 noundef %31)
  store ptr %32, ptr %9, align 8
  %33 = load ptr, ptr %10, align 8
  %34 = call ptr @MemoryContextSwitchTo(ptr noundef %33)
  %35 = load ptr, ptr %9, align 8
  call void @llvm.lifetime.end.p0(i64 8, ptr %10) #9
  call void @llvm.lifetime.end.p0(i64 8, ptr %9) #9
  ret ptr %35
}