; Function Attrs: nounwind uwtable
define dso_local ptr @LookupTupleHashEntryHash(ptr noundef captures(none) initializes((72, 96)) %0, ptr noundef %1, ptr noundef writeonly captures(address_is_null) %2, i32 noundef %3) local_unnamed_addr #0 {
  %5 = alloca i8, align 1
  %6 = getelementptr inbounds nuw i8, ptr %0, i64 56
  %7 = load ptr, ptr %6, align 8
  %8 = load ptr, ptr @CurrentMemoryContext, align 8
  store ptr %7, ptr @CurrentMemoryContext, align 8
  %9 = getelementptr inbounds nuw i8, ptr %0, i64 72
  store ptr %1, ptr %9, align 8
  %10 = getelementptr inbounds nuw i8, ptr %0, i64 24
  %11 = load ptr, ptr %10, align 8
  %12 = getelementptr inbounds nuw i8, ptr %0, i64 80
  store ptr %11, ptr %12, align 8
  %13 = getelementptr inbounds nuw i8, ptr %0, i64 32
  %14 = load ptr, ptr %13, align 8
  %15 = getelementptr inbounds nuw i8, ptr %0, i64 88
  store ptr %14, ptr %15, align 8
  call void @llvm.lifetime.start.p0(i64 1, ptr nonnull %5) #15
  %.not.i = icmp eq ptr %2, null
  %16 = load ptr, ptr %0, align 8
  br i1 %.not.i, label %31, label %17

17:                                               ; preds = %4
  %18 = call fastcc ptr @tuplehash_insert_hash_internal(ptr noundef %16, ptr noundef null, i32 noundef %3, ptr noundef nonnull %5)
  %19 = load i8, ptr %5, align 1, !range !15, !noundef !16
  %20 = trunc nuw i8 %19 to i1
  br i1 %20, label %21, label %22

21:                                               ; preds = %17
  store i8 0, ptr %2, align 1
  br label %LookupTupleHashEntry_internal.exit

22:                                               ; preds = %17
  store i8 1, ptr %2, align 1
  %23 = getelementptr inbounds nuw i8, ptr %18, i64 8
  store ptr null, ptr %23, align 8
  %24 = getelementptr inbounds nuw i8, ptr %0, i64 48
  %25 = load ptr, ptr %24, align 8
  store ptr %25, ptr @CurrentMemoryContext, align 8
  %26 = getelementptr inbounds nuw i8, ptr %1, i64 8
  %27 = load ptr, ptr %26, align 8
  %28 = getelementptr inbounds nuw i8, ptr %27, i64 96
  %29 = load ptr, ptr %28, align 8
  %30 = tail call ptr %29(ptr noundef %1) #15
  store ptr %30, ptr %18, align 8
  br label %LookupTupleHashEntry_internal.exit

31:                                               ; preds = %4
  %32 = tail call ptr @tuplehash_lookup_hash(ptr noundef %16, ptr poison, i32 noundef %3)
  br label %LookupTupleHashEntry_internal.exit

LookupTupleHashEntry_internal.exit:               ; preds = %21, %22, %31
  %.0.i = phi ptr [ %18, %21 ], [ %18, %22 ], [ %32, %31 ]
  call void @llvm.lifetime.end.p0(i64 1, ptr nonnull %5) #15
  store ptr %8, ptr @CurrentMemoryContext, align 8
  ret ptr %.0.i
}